(lp0
(VAs More Election Results Come In, Democratic Losses Grow
p1
Vhttp://www.nytimes.com/2014/11/06/us/politics/midterm-democratic-losses-grow.html
p2
VNew York Times
p3
cnumpy.core.multiarray
scalar
p4
(cnumpy
dtype
p5
(S'f8'
p6
I0
I1
tp7
Rp8
(I3
S'<'
p9
NNNI-1
I-1
I0
tp10
bS'ffffff\xe6?'
p11
tp12
Rp13
Vnegative
p14
V-0.260663
p15
tp16
a(VChristie Heads to 2016 Decision With Republican Favor Bank Full
p17
Vhttp://www.businessweek.com/news/2014-11-05/christie-heads-to-2016-decision-with-republican-favor-bank-full
p18
VBusinessweek
p19
g4
(g8
S'\x9d\x99\x99\x99\x99\x99\xd9?'
p20
tp21
Rp22
Vpositive
p23
V0.165554
p24
tp25
a(VVoters pass wage hikes and legal pot, divide on abortion
p26
Vhttp://www.washingtonpost.com/national/religion/voters-pass-wage-hikes-and-legal-pot-divide-on-abortion/2014/11/05/f0412ae8-650b-11e4-ab86-46000e1d0035_story.html
p27
VWashington Post
p28
g4
(g8
S'\x82fffff\xd6?'
p29
tp30
Rp31
Vnegative
p32
V-0.207572
p33
tp34
a(VDriver Plows Into Pedestrians Near Jerusalem Train Station
p35
Vhttp://www.nytimes.com/2014/11/06/world/middleeast/jerusalem-driver-plows-into-pedestrians.html
p36
VNew York Times
p37
g4
(g8
S'ffffff\xe6?'
p38
tp39
Rp40
Vnegative
p41
V-0.506673
p42
tp43
a(VAccomplished stage director engaged to Benedict Cumberbatch
p44
Vhttp://news-briefs.ew.com/2014/11/05/benedict-cumberbatch-to-be-married/
p45
VEntertainment Weekly
p46
g4
(g8
S'\xebQ\xb8\x1e\x85\xeb\xd1?'
p47
tp48
Rp49
Vpositive
p50
V0.306159
p51
tp52
a(VReport: A-Rod admits to PED use under oath
p53
Vhttp://www.foxnews.com/sports/2014/11/05/report-rod-admits-to-ped-use-under-oath/
p54
VFox News
p55
g4
(g8
S'*\\\x8f\xc2\xf5(\xe4?'
p56
tp57
Rp58
Vnegative
p59
V-0.423179
p60
tp61
a(VBritain sending more troops to train Iraqis
p62
Vhttp://www.chron.com/news/world/article/Britain-sending-more-troops-to-train-Iraqis-5872844.php
p63
VChron.com
p64
g4
(g8
S'*\\\x8f\xc2\xf5(\xe4?'
p65
tp66
Rp67
Vnegative
p68
V-0.0799082
p69
tp70
a(VFinland warns Europe is 'at the gates of a new cold war' in wake of Russian ...
p71
Vhttp://www.independent.co.uk/news/world/europe/finland-warns-europe-is-at-the-gates-of-a-new-cold-war-in-wake-of-russian-military-activity-9841867.html
p72
VThe Independent
p73
g4
(g8
S'\xecQ\xb8\x1e\x85\xeb\xe1?'
p74
tp75
Rp76
Vnegative
p77
V-0.219638
p78
tp79
a(VIran hardliners want nuclear deal but no ties with Washington
p80
Vhttp://www.thestar.com.my/News/World/2014/11/06/Iran-hardliners-want-nuclear-deal-but-no-ties-with-Washington/
p81
VThe Star Online
p82
g4
(g8
S']\x8f\xc2\xf5(\\\xdf?'
p83
tp84
Rp85
Vnegative
p86
V-0.304726
p87
tp88
a(VOnline Photos Claim to Show Slain Woman's Body
p89
Vhttp://abcnews.go.com/US/wireStory/photos-purport-show-slain-washington-woman-26698091
p90
VABC News
p91
g4
(g8
S'ffffff\xe6?'
p92
tp93
Rp94
Vnegative
p95
V-0.201353
p96
tp97
a(VCoakley concedes to Baker in governor's race
p98
Vhttp://www.bostonglobe.com/news/politics/2014/11/05/martha-coakley-concedes-gubernatorial-race-telephone-call-charlie-baker/bbef08yOW5tPJAkYzBNfMK/story.html
p99
VBoston Globe
p100
g4
(g8
S'ffffff\xe6?'
p101
tp102
Rp103
Vpositive
p104
V0.0559416
p105
tp106
a(VElection Results 2014: Here Are the Key Races That Are Still Too Close to Project
p107
Vhttp://abcnews.go.com/Politics/election-results-2014-key-races-close-call/story?id=26703958
p108
VABC News
p109
g4
(g8
S')\\\x8f\xc2\xf5(\xe4?'
p110
tp111
Rp112
Vnegative
p113
V-0.188121
p114
tp115
a(VColorado's Democratic Gov. Hickenlooper wins in a squeaker
p116
Vhttp://www.latimes.com/nation/politics/politicsnow/la-pn-colorado-democrat-governor-hickenlooper-wins-squeaker-20141105-story.html
p117
VLos Angeles Times
p118
g4
(g8
S'ffffff\xe6?'
p119
tp120
Rp121
Vnegative
p122
V-0.3271
p123
tp124
a(VWall Street Up After Jobs Data; Dow Hits Record
p125
Vhttp://profit.ndtv.com/news/market/article-wall-street-up-after-jobs-data-dow-hits-record-689304
p126
VNDTV
p127
g4
(g8
S'\xebQ\xb8\x1e\x85\xeb\xe1?'
p128
tp129
Rp130
Vnegative
p131
V-0.304647
p132
tp133
a(VUS services sector slows; private payrolls increase
p134
Vhttp://www.reuters.com/article/2014/11/05/us-usa-economy-employment-adp-idUSKBN0IP1M420141105
p135
VReuters
p136
g4
(g8
S'\x00\x00\x00\x00\x00\x00\xe0?'
p137
tp138
Rp139
Vnegative
p140
V-0.0585054
p141
tp142
a(VUS Services Firms Grow More Slowly, but Hiring Up
p143
Vhttp://abcnews.go.com/Business/wireStory/us-services-firms-grow-slowly-hiring-26704199
p144
VABC News
p145
g4
(g8
S'r=\n\xd7\xa3p\xdd?'
p146
tp147
Rp148
Vpositive
p149
V0.245577
p150
tp151
a(VJawbone launches UP3 and UP Move fitness trackers
p152
Vhttp://www.telegraph.co.uk/technology/news/11210342/UP3-and-UP-Move-Jawbone-launches-new-fitness-trackers.html
p153
VTelegraph.co.uk
p154
g4
(g8
S'*\\\x8f\xc2\xf5(\xe4?'
p155
tp156
Rp157
Vpositive
p158
V0.520264
p159
tp160
a(VIBM launches new cloud security practice
p161
Vhttp://www.usatoday.com/story/tech/2014/11/05/ibm-cloud-security/18424315/
p162
VUSA TODAY
p163
g4
(g8
S')\\\x8f\xc2\xf5(\xe4?'
p164
tp165
Rp166
Vpositive
p167
V0.0464336
p168
tp169
a(VThe white knight rises: Christopher Nolan's space odyssey boldly blends the ...
p170
Vhttp://www.rollingstone.com/movies/reviews/interstellar-20141105
p171
VRollingStone.com
p172
g4
(g8
S'\xadG\xe1z\x14\xae\xd7?'
p173
tp174
Rp175
Vpositive
p176
V0.2036
p177
tp178
a(VLena Dunham's Lawyers Threaten to Sue Truth Revolt Over Sexual Abuse Story
p179
Vhttp://www.eonline.com/news/595004/lena-dunham-s-lawyers-threaten-to-sue-truth-revolt-over-sexual-abuse-story
p180
VE! Online
p181
g4
(g8
S'R\xb8\x1e\x85\xebQ\xc8?'
p182
tp183
Rp184
Vnegative
p185
V-0.457164
p186
tp187
a(VNFL's Ray Rice arrives for appeal hearing in New York
p188
Vhttp://www.foxnews.com/sports/2014/11/05/ray-rice-appeal-hearing-set-to-begin-wednesday/
p189
VFox News
p190
g4
(g8
S'\x9a\x99\x99\x99\x99\x99\xc9?'
p191
tp192
Rp193
Vnegative
p194
V-0.193487
p195
tp196
a(VIn latest College Football Playoff rankings, Oregon moves into a coveted top-four ...
p197
Vhttp://www.washingtonpost.com/sports/colleges/in-latest-college-football-playoff-rankings-oregon-moves-into-a-coveted-top-four-spot/2014/11/04/fad48afe-6475-11e4-836c-83bc4f26eb67_story.html?tid=pm_sports_pop
p198
VWashington Post
p199
g4
(g8
S'R\xb8\x1e\x85\xebQ\xc8?'
p200
tp201
Rp202
Vnegative
p203
V-0.321666
p204
tp205
a(VJackie Bradley Jr.'s Gold Glove Snub A Reminder Of Red Sox's Dilemma
p206
Vhttp://nesn.com/2014/11/jackie-bradley-jr-s-gold-glove-snub-a-reminder-of-red-soxs-dilemma/
p207
VNESN.com
p208
g4
(g8
S'>\n\xd7\xa3p=\xda?'
p209
tp210
Rp211
Vnegative
p212
V-0.228848
p213
tp214
a(VGrowing Pains For Cavs
p215
Vhttp://espn.go.com/los-angeles/nba/story/_/id/11824862/lebron-james-cleveland-cavaliers-loss-going-long-process
p216
VESPN
p217
g4
(g8
S'\xecQ\xb8\x1e\x85\xeb\xe1?'
p218
tp219
Rp220
Vpositive
p221
V0.0499137
p222
tp223
a(VThree fireballs lit up US skies Monday, but one might be fake
p224
Vhttp://www.foxnews.com/science/2014/11/05/three-fireballs-lit-up-us-skies-monday-but-one-might-be-fake/
p225
VFox News
p226
g4
(g8
S']\x8f\xc2\xf5(\\\xdf?'
p227
tp228
Rp229
Vnegative
p230
V-0.016952
p231
tp232
a(VDeer with 'vampire fangs' spotted for 1st time in decades
p233
Vhttp://www.foxnews.com/science/2014/11/05/deer-with-vampire-fangs-spotted-for-1st-time-in-decades/
p234
VFox News
p235
g4
(g8
S'\xecQ\xb8\x1e\x85\xeb\xe1?'
p236
tp237
Rp238
Vnegative
p239
V-0.0435373
p240
tp241
a(VThree Ways Health Officials And Doctors Fumbled In Communicating Ebola Risk
p242
Vhttp://www.forbes.com/sites/fayeflam/2014/11/05/three-ways-health-officials-and-doctors-fumbled-in-communicating-ebola-risk/
p243
VForbes
p244
g4
(g8
S'\x9d\x99\x99\x99\x99\x99\xd9?'
p245
tp246
Rp247
Vnegative
p248
V-0.453106
p249
tp250
a(VResearchers reveal the secret to fending off kidney stones
p251
Vhttp://dailydigestnews.com/2014/11/researchers-reveal-the-secret-to-fending-off-kidney-stones/
p252
VDaily Digest
p253
g4
(g8
S'333333\xc3?'
p254
tp255
Rp256
Vnegative
p257
V-0.518278
p258
tp259
a(VChagas, 'kissing bug' disease, worries U.S. health officials
p260
Vhttp://www.upi.com/Health_News/2014/11/05/Chagas-kissing-bug-disease-worries-US-health-officials/7991415199409/?spt=rrs&or=1
p261
VUPI.com
p262
g4
(g8
S'333333\xe3?'
p263
tp264
Rp265
Vnegative
p266
V-0.273864
p267
tp268
a(VWHO's Next Africa Chief Is Elected
p269
Vhttp://abcnews.go.com/International/wireStory/voting-begins-pick-africa-chief-26698311
p270
VABC News
p271
g4
(g8
S'\xecQ\xb8\x1e\x85\xeb\xe1?'
p272
tp273
Rp274
Vnegative
p275
V-0.273302
p276
tp277
a.