(lp0
(VGOP Plans Congress Agenda After Midterm Election Sweep
p1
Vhttp://online.wsj.com/articles/gop-plans-congress-agenda-after-midterm-election-sweep-1415199710
p2
VWall Street Journal
p3
cnumpy.core.multiarray
scalar
p4
(cnumpy
dtype
p5
(S'f8'
p6
I0
I1
tp7
Rp8
(I3
S'<'
p9
NNNI-1
I-1
I0
tp10
bS'\x1e\x85\xebQ\xb8\x1e\xd5?'
p11
tp12
Rp13
Vnegative
p14
V-0.655083
p15
tp16
a(VChris Christie wasn't on midterm ballot. Big winner anyway?
p17
Vhttp://www.csmonitor.com/USA/DC-Decoder/Decoder-Buzz/2014/1105/Chris-Christie-wasn-t-on-midterm-ballot.-Big-winner-anyway
p18
VChristian Science Monitor
p19
g4
(g8
S'\xecQ\xb8\x1e\x85\xeb\xe1?'
p20
tp21
Rp22
Vnegative
p23
V-0.0286453
p24
tp25
a(VFormer NFL Cheerleader Molly Shattuck Repeatedly Raped 15-Year-Old Boy ...
p26
Vhttp://www.huffingtonpost.com/2014/11/05/cheerleader-molly-shattuck_n_6108168.html
p27
VHuffington Post
p28
g4
(g8
S'ffffff\xd6?'
p29
tp30
Rp31
Vnegative
p32
V-0.0130863
p33
tp34
a(VBaker Jobs Promises Will Now Take Center Stage
p35
Vhttp://www.boston.com/jobs/news/2014/11/05/baker-jobs-promises-will-now-take-center-stage/clBuXvvOdy1rm6uXJfD3iL/story.html?p1=Must_Reads
p36
VBoston.com
p37
g4
(g8
S')\\\x8f\xc2\xf5(\xe4?'
p38
tp39
Rp40
Vnegative
p41
V-0.104776
p42
tp43
a(VJerusalem terror attack leaves 1 dead and 3 critically wounded
p44
Vhttp://www.haaretz.com/news/diplomacy-defense/1.624806
p45
VHaaretz
p46
g4
(g8
S'\xecQ\xb8\x1e\x85\xeb\xe1?'
p47
tp48
Rp49
Vnegative
p50
V-0.389457
p51
tp52
a(VObama seeks $6.2 billion to combat Ebola: officials
p53
Vhttp://www.reuters.com/article/2014/11/05/us-health-ebola-obama-idUSKBN0IP2EE20141105
p54
VReuters
p55
g4
(g8
S'*\\\x8f\xc2\xf5(\xe4?'
p56
tp57
Rp58
Vnegative
p59
V-0.412802
p60
tp61
a(VCease-Fire in Ukraine Fails and Preparations for War Begin
p62
Vhttp://time.com/3558451/ukraine-russia-separatists-mariupol-war/
p63
VTIME
p64
g4
(g8
S'\xecQ\xb8\x1e\x85\xeb\xe1?'
p65
tp66
Rp67
Vnegative
p68
V-0.336517
p69
tp70
a(VFormer Aide Says Putin Has No Strategic Plans
p71
Vhttp://time.com/3547935/putin-pugachev-oligarchs/
p72
VTIME
p73
g4
(g8
S'\xebQ\xb8\x1e\x85\xeb\xe1?'
p74
tp75
Rp76
Vnegative
p77
V-0.0767927
p78
tp79
a(VBritain sending more troops to train Iraqi and Kurdish fighters
p80
Vhttp://indianexpress.com/article/world/europe/britain-sending-more-troops-to-train-iraqi-and-kurdish-fighters/
p81
VIndian Express
p82
g4
(g8
S'*\\\x8f\xc2\xf5(\xe4?'
p83
tp84
Rp85
Vnegative
p86
V-0.366095
p87
tp88
a(VPot proponents look to California after victories
p89
Vhttp://www.sfgate.com/news/article/Ballot-measures-California-next-for-pot-activists-5872403.php
p90
VSFGate
p91
g4
(g8
S'ffffff\xe6?'
p92
tp93
Rp94
Vnegative
p95
V-0.188233
p96
tp97
a(VSullivan maintains lead in U.S. Senate race
p98
Vhttp://www.ktva.com/sullivan-maintains-lead-in-u-s-senate-race-728/
p99
VKTVA CBS 11 News Alaska
p100
g4
(g8
S'ffffff\xe6?'
p101
tp102
Rp103
Vpositive
p104
V0.0628261
p105
tp106
a(VThough Bells Toll for Us All, Men and Boys Bear the Brunt of Our Nation's Gun ...
p107
Vhttp://www.huffingtonpost.com/craig-k-collins/though-bells-toll-for-us-_b_6108484.html
p108
VHuffington Post
p109
g4
(g8
S'\xb8\x1e\x85\xebQ\xb8\xde?'
p110
tp111
Rp112
Vnegative
p113
V-0.25471
p114
tp115
a(VU.S. stocks head higher after midterm elections, jobs data
p116
Vhttp://www.marketwatch.com/story/us-stocks-futures-higher-as-republicans-sweep-midterms-2014-11-05
p117
VMarketWatch
p118
g4
(g8
S'3\x9a\x99\x99\x99\x99\xc9?'
p119
tp120
Rp121
Vnegative
p122
V-0.140334
p123
tp124
a(VStocks Climb on GOP Wave Election
p125
Vhttp://www.foxbusiness.com/markets/2014/11/05/stocks-climb-on-gop-wave-election/
p126
VFox Business
p127
g4
(g8
S'\xebQ\xb8\x1e\x85\xeb\xe1?'
p128
tp129
Rp130
Vnegative
p131
V-0.40953
p132
tp133
a(VMinimum Wage And Sick Leave Victories Buck The Conservative Voting Trend
p134
Vhttp://www.forbes.com/sites/susanadams/2014/11/05/minimum-wage-and-sick-leave-victories-buck-the-conservative-voting-trend/
p135
VForbes
p136
g4
(g8
S'\xf6(\\\x8f\xc2\xf5\xd8?'
p137
tp138
Rp139
Vnegative
p140
V-0.085934
p141
tp142
a(VBallot Question One: Does The Yes Vote Change My Commute?
p143
Vhttp://www.boston.com/cars/news-and-reviews/2014/11/05/ballot-question-one-does-the-yes-vote-change-commute/AzVllRNqQ3EB3U3BtpzqZN/story.html
p144
VBoston.com
p145
g4
(g8
S')\\\x8f\xc2\xf5(\xe4?'
p146
tp147
Rp148
Vnegative
p149
V-0.383246
p150
tp151
a(VWorkday plots wave of predictive analytic apps
p152
Vhttp://www.itworld.com/article/2843677/workday-plots-wave-of-predictive-analytic-apps.html
p153
VITworld.com
p154
g4
(g8
S'*\\\x8f\xc2\xf5(\xe4?'
p155
tp156
Rp157
Vpositive
p158
V0.370527
p159
tp160
a(VJawbone Unveils UP Move, UP3 Trackers
p161
Vhttp://www.pcmag.com/article2/0,2817,2471645,00.asp
p162
VPC Magazine
p163
g4
(g8
S'ffffff\xe6?'
p164
tp165
Rp166
Vpositive
p167
V0.431746
p168
tp169
a(VMiranda Lambert Planning Five Outfit Changes for the CMA Awards
p170
Vhttp://www.people.com/people/package/article/0,,20316530_20869458,00.html
p171
VPeople Magazine
p172
g4
(g8
S'\xecQ\xb8\x1e\x85\xeb\xe1?'
p173
tp174
Rp175
Vpositive
p176
V0.274559
p177
tp178
a(VBenedict Cumberbatch engaged: 'Sherlock' goes old school, shuns Twitter
p179
Vhttp://www.csmonitor.com/The-Culture/2014/1105/Benedict-Cumberbatch-engaged-Sherlock-goes-old-school-shuns-Twitter
p180
VChristian Science Monitor
p181
g4
(g8
S'\x95\x99\x99\x99\x99\x99\xd9?'
p182
tp183
Rp184
Vpositive
p185
V0.329932
p186
tp187
a(VReview: 'Interstellar' a sublime cosmic knockout
p188
Vhttp://www.thestarpress.com/story/news/local/2014/11/05/review-interstellar-sublime-cosmic-knockout/18537495/
p189
VMuncie Star Press
p190
g4
(g8
S'\n\xd7\xa3p=\n\xd7?'
p191
tp192
Rp193
Vpositive
p194
V0.228615
p195
tp196
a(VBill O'Brien tabs Ryan Mallett as Texans' starting QB
p197
Vhttp://www.nfl.com/news/story/0ap3000000423288/article/bill-obrien-tabs-ryan-mallett-as-texans-starting-qb
p198
VNFL.com
p199
g4
(g8
S'ffffff\xe6?'
p200
tp201
Rp202
Vpositive
p203
V0.294493
p204
tp205
a(VAlex Rodriguez will talk to feds about Biogenesis after agreeing to 'queen for a ...
p206
Vhttp://www.nydailynews.com/sports/i-team/a-rod-sing-feds-biogenesis-agreeing-queen-day-immunity-deal-article-1.1999653
p207
VNew York Daily News
p208
g4
(g8
S'\xecQ\xb8\x1e\x85\xeb\xe1?'
p209
tp210
Rp211
Vnegative
p212
V-0.328248
p213
tp214
a(VNCAA officials debated PSU penalty
p215
Vhttp://abcnews.go.com/Sports/ncaa-officials-debated-psu-penalty/story?id=26711452
p216
VABC News
p217
g4
(g8
S'(\\\x8f\xc2\xf5(\xbc?'
p218
tp219
Rp220
Vnegative
p221
V-0.270314
p222
tp223
a(VLeBron James decries Cleveland Cavaliers bad habits after blowout loss to ...
p224
Vhttp://www.foxsports.com/nba/story/lebron-james-bad-habits-cleveland-cavaliers-blowout-loss-portland-trail-blazers-110514
p225
VFOXSports.com
p226
g4
(g8
S'ffffff\xe6?'
p227
tp228
Rp229
Vnegative
p230
V-0.0296363
p231
tp232
a(VLimb cells turned into genitals in lab
p233
Vhttp://www.bbc.co.uk/news/science-environment-29899756
p234
VBBC News
p235
g4
(g8
S'\xe0z\x14\xaeG\xe1\xda?'
p236
tp237
Rp238
Vnegative
p239
V-0.209808
p240
tp241
a(VThree fireballs \u2013 one courtesy of Red Bull \u2013 light up US skies (+video)
p242
Vhttp://www.csmonitor.com/Science/2014/1105/Three-fireballs-one-courtesy-of-Red-Bull-light-up-US-skies-video
p243
VChristian Science Monitor
p244
g4
(g8
S'\x82fffff\xd6?'
p245
tp246
Rp247
Vpositive
p248
V0.0386928
p249
tp250
a(VMadagascar Fossil Offers Clues in Evolution of Mammals
p251
Vhttp://www.nytimes.com/2014/11/06/science/madagascar-fossil-vintana-mammals-evolution.html
p252
VNew York Times
p253
g4
(g8
S'[\x8f\xc2\xf5(\\\xdf?'
p254
tp255
Rp256
Vnegative
p257
V-0.00170842
p258
tp259
a(VFirst Amphibious "Sea Monster" Found; Fills Evolutionary Gap
p260
Vhttp://news.nationalgeographic.com/news/2014/11/141105-ichthyosaurs-sea-monsters-dinosaurs-science-fossils/
p261
VNational Geographic
p262
g4
(g8
S'[\x8f\xc2\xf5(\\\xdf?'
p263
tp264
Rp265
Vnegative
p266
V-0.121291
p267
tp268
a(VWith Scott victory, Florida Medicaid expansion hopes dim
p269
Vhttp://www.tampabay.com/news/politics/gubernatorial/with-scott-victory-florida-medicaid-expansion-hopes-dim/2205244
p270
VTampabay.com
p271
g4
(g8
S'ffffff\xe6?'
p272
tp273
Rp274
Vnegative
p275
V-0.148455
p276
tp277
a(VFree of Ebola, Nurse's Aide Is Released From Madrid Hospital
p278
Vhttp://www.nytimes.com/2014/11/06/world/europe/ebola-outbreak-spain.html
p279
VNew York Times
p280
g4
(g8
S'ffffff\xe6?'
p281
tp282
Rp283
Vnegative
p284
V-0.288752
p285
tp286
a(VSMS service tackles Ebola in Sierra Leone, expands in West Africa
p287
Vhttp://in.reuters.com/article/2014/11/05/health-ebola-leone-mobilephone-idINKBN0IP2BT20141105
p288
VReuters
p289
g4
(g8
S']\x8f\xc2\xf5(\\\xdf?'
p290
tp291
Rp292
Vpositive
p293
V0.160666
p294
tp295
a.