(lp0
(VObama, Congress prepare for new reality after GOP sweep
p1
Vhttp://www.usatoday.com/story/news/nation/2014/11/05/mid-term-election-republican-obama-reaction/18523449/
p2
VUSA TODAY
p3
cnumpy.core.multiarray
scalar
p4
(cnumpy
dtype
p5
(S'f8'
p6
I0
I1
tp7
Rp8
(I3
S'<'
p9
NNNI-1
I-1
I0
tp10
bS')\\\x8f\xc2\xf5(\xe4?'
p11
tp12
Rp13
Vnegative
p14
V-0.200241
p15
tp16
a(VChristie Heads to 2016 Decision With Republican Favor Bank Full
p17
Vhttp://www.bloomberg.com/news/2014-11-05/christie-faces-2016-decision-with-republican-favors-owed.html
p18
VBloomberg
p19
g4
(g8
S'\x9d\x99\x99\x99\x99\x99\xd9?'
p20
tp21
Rp22
Vpositive
p23
V0.165554
p24
tp25
a(VMinimum-Wage Boosts, Pot Legalization Advance in State Ballot Measures
p26
Vhttp://online.wsj.com/articles/multiple-states-initiatives-tackle-minimum-wage-marijuana-and-abortion-1415142902
p27
VWall Street Journal
p28
g4
(g8
S'\xe2z\x14\xaeG\xe1\xda?'
p29
tp30
Rp31
Vnegative
p32
V-0.0505274
p33
tp34
a(VPolice: 1 dead after car rams Jerusalem train platform in terror attack
p35
Vhttp://www.foxnews.com/world/2014/11/05/israeli-police-say-car-rams-jerusalem-train-platform-in-apparent-terror-attack/
p36
VFox News
p37
g4
(g8
S'q=\n\xd7\xa3p\xe5?'
p38
tp39
Rp40
Vnegative
p41
V-0.55722
p42
tp43
a(VWall St. up after midterm, ADP data; Dow hits record
p44
Vhttp://www.reuters.com/article/2014/11/05/us-markets-stocks-idUSKBN0IP1EH20141105
p45
VReuters
p46
g4
(g8
S'[\x8f\xc2\xf5(\\\xdf?'
p47
tp48
Rp49
Vnegative
p50
V-0.412091
p51
tp52
a(VThe white knight rises: Christopher Nolan's space odyssey boldly blends the ...
p53
Vhttp://www.rollingstone.com/movies/reviews/interstellar-20141105
p54
VRollingStone.com
p55
g4
(g8
S'\xadG\xe1z\x14\xae\xd7?'
p56
tp57
Rp58
Vpositive
p59
V0.2036
p60
tp61
a(VFallon on Iraq troops: 'This is a limited mission'
p62
Vhttp://www.bbc.co.uk/news/uk-29921060
p63
VBBC News
p64
g4
(g8
S'(\\\x8f\xc2\xf5(\xcc?'
p65
tp66
Rp67
Vpositive
p68
V0.607288
p69
tp70
a(V3 Presidents Press Burkina Faso on Civilian Rule
p71
Vhttp://abcnews.go.com/International/wireStory/presidents-press-burkina-faso-civilian-rule-26699144
p72
VABC News
p73
g4
(g8
S')\\\x8f\xc2\xf5(\xe4?'
p74
tp75
Rp76
Vnegative
p77
V-0.137953
p78
tp79
a(VMortar Fire on Syria School Kills 13 Children
p80
Vhttp://abcnews.go.com/International/wireStory/mortar-fire-syria-school-kills-13-children-26704083
p81
VABC News
p82
g4
(g8
S'*\\\x8f\xc2\xf5(\xe4?'
p83
tp84
Rp85
Vnegative
p86
V-0.465079
p87
tp88
a(VForbes power ranking: PM Modi at No. 15, Putin beats Obama again
p89
Vhttp://www.hindustantimes.com/india-news/forbes-power-ranking-pm-modi-at-no-15-putin-beats-obama-again/article1-1282889.aspx
p90
VHindustan Times
p91
g4
(g8
S'\xebQ\xb8\x1e\x85\xeb\xc1?'
p92
tp93
Rp94
Vpositive
p95
V0.0569135
p96
tp97
a(VWHO's Next Africa Chief Is Elected
p98
Vhttp://abcnews.go.com/International/wireStory/voting-begins-pick-africa-chief-26698311
p99
VABC News
p100
g4
(g8
S'\xecQ\xb8\x1e\x85\xeb\xe1?'
p101
tp102
Rp103
Vnegative
p104
V-0.273302
p105
tp106
a(VRepublican Charlie Baker Wins Tight Race for Massachusetts Governor
p107
Vhttp://online.wsj.com/articles/republican-charlie-baker-wins-tight-race-for-massachusetts-governor-1415199623
p108
VWall Street Journal
p109
g4
(g8
S'\xb8\x1e\x85\xebQ\xb8\xce?'
p110
tp111
Rp112
Vneutral
p113
I0
tp114
a(VMia Love Makes History
p115
Vhttp://www.newsweek.com/mia-love-makes-history-282432
p116
VNewsweek
p117
g4
(g8
S'z\x14\xaeG\xe1z\xd4?'
p118
tp119
Rp120
Vneutral
p121
I0
tp122
a(VMidterm Election Results 2014: Republican Dan Sullivan Tops Alaska Sen. Mark ...
p123
Vhttp://www.ibtimes.com/midterm-election-results-2014-republican-dan-sullivan-tops-alaska-sen-mark-begich-1718816
p124
VInternational Business Times
p125
g4
(g8
S'\x00\x00\x00\x00\x00\x00\xd0?'
p126
tp127
Rp128
Vnegative
p129
V-0.280722
p130
tp131
a(VMilne not conceding Vermont election
p132
Vhttp://www.seattlepi.com/news/article/Milne-not-conceding-Vermont-election-5872740.php
p133
Vseattlepi.com
p134
g4
(g8
S'*\\\x8f\xc2\xf5(\xe4?'
p135
tp136
Rp137
Vnegative
p138
V-0.401125
p139
tp140
a(VUS services sector slows; private payrolls increase
p141
Vhttp://www.reuters.com/article/2014/11/05/us-usa-economy-employment-adp-idUSKBN0IP1M420141105
p142
VReuters
p143
g4
(g8
S'\x00\x00\x00\x00\x00\x00\xe0?'
p144
tp145
Rp146
Vnegative
p147
V-0.0585054
p148
tp149
a(VUS Services Firms Grow More Slowly, but Hiring Up
p150
Vhttp://abcnews.go.com/Business/wireStory/us-services-firms-grow-slowly-hiring-26704199
p151
VABC News
p152
g4
(g8
S'r=\n\xd7\xa3p\xdd?'
p153
tp154
Rp155
Vpositive
p156
V0.245577
p157
tp158
a(VREFILE-India, isolated, toughs it out in WTO food-stockpiling row
p159
Vhttp://www.reuters.com/article/2014/11/05/trade-wto-india-idUSL6N0SV3KL20141105
p160
VReuters
p161
g4
(g8
S'*\\\x8f\xc2\xf5(\xe4?'
p162
tp163
Rp164
Vnegative
p165
V-0.318755
p166
tp167
a(VJawbone announces affordable UP Move and high-end UP3 activity trackers
p168
Vhttp://www.zdnet.com/jawbone-announces-affordable-up-move-and-high-end-up3-activity-trackers-7000035439/
p169
VZDNet
p170
g4
(g8
S'\x98\x99\x99\x99\x99\x99\xd9?'
p171
tp172
Rp173
Vpositive
p174
V0.299248
p175
tp176
a(VIBM launches new cloud security practice
p177
Vhttp://www.usatoday.com/story/tech/2014/11/05/ibm-cloud-security/18424315/
p178
VUSA TODAY
p179
g4
(g8
S')\\\x8f\xc2\xf5(\xe4?'
p180
tp181
Rp182
Vpositive
p183
V0.0464336
p184
tp185
a(VAccomplished stage director engaged to Benedict Cumberbatch
p186
Vhttp://news-briefs.ew.com/2014/11/05/benedict-cumberbatch-to-be-married/
p187
VEntertainment Weekly
p188
g4
(g8
S'\xebQ\xb8\x1e\x85\xeb\xd1?'
p189
tp190
Rp191
Vpositive
p192
V0.306159
p193
tp194
a(VLena Dunham's Lawyers Threaten to Sue Truth Revolt Over Sexual Abuse Story
p195
Vhttp://www.eonline.com/news/595004/lena-dunham-s-lawyers-threaten-to-sue-truth-revolt-over-sexual-abuse-story
p196
VE! Online
p197
g4
(g8
S'R\xb8\x1e\x85\xebQ\xc8?'
p198
tp199
Rp200
Vnegative
p201
V-0.47493
p202
tp203
a(VReport: A-Rod admitted PED use
p204
Vhttp://ftw.usatoday.com/2014/11/alex-rodriguez-admits-ped-use-report-new-york-yankees-mlb
p205
VUSA TODAY
p206
g4
(g8
S'333333\xc3?'
p207
tp208
Rp209
Vnegative
p210
V-0.470227
p211
tp212
a(VPlea to men's basketball committee: Don't take cues from college football
p213
Vhttp://www.cbssports.com/collegebasketball/eye-on-college-basketball/24784302/plea-to-mens-basketball-committee-dont-take-cues-from-college-football
p214
VCBSSports.com
p215
g4
(g8
S'\x99\x99\x99\x99\x99\x99\xd9?'
p216
tp217
Rp218
Vnegative
p219
V-0.219072
p220
tp221
a(VJackie Bradley Jr.'s Gold Glove Snub A Reminder Of Red Sox's Dilemma
p222
Vhttp://nesn.com/2014/11/jackie-bradley-jr-s-gold-glove-snub-a-reminder-of-red-soxs-dilemma/
p223
VNESN.com
p224
g4
(g8
S'>\n\xd7\xa3p=\xda?'
p225
tp226
Rp227
Vnegative
p228
V-0.228848
p229
tp230
a(VNFL's Ray Rice arrives for appeal hearing in New York
p231
Vhttp://www.foxnews.com/sports/2014/11/05/ray-rice-appeal-hearing-set-to-begin-wednesday/
p232
VFox News
p233
g4
(g8
S'\x9a\x99\x99\x99\x99\x99\xc9?'
p234
tp235
Rp236
Vnegative
p237
V-0.193487
p238
tp239
a(V'Fireball meteor' seen over western Japan
p240
Vhttp://www.bbc.co.uk/news/science-environment-29895502
p241
VBBC News
p242
g4
(g8
S'R\xb8\x1e\x85\xebQ\xd8?'
p243
tp244
Rp245
Vpositive
p246
V0.233014
p247
tp248
a(VBizzare object identified after surviving supermassive black hole
p249
Vhttp://www.sciencerecorder.com/news/bizzare-object-identified-after-surviving-supermassive-black-hole/
p250
VScience Recorder
p251
g4
(g8
S'R\xb8\x1e\x85\xebQ\xc8?'
p252
tp253
Rp254
Vnegative
p255
V-0.207816
p256
tp257
a(VThree Ways Health Officials And Doctors Fumbled In Communicating Ebola Risk
p258
Vhttp://www.forbes.com/sites/fayeflam/2014/11/05/three-ways-health-officials-and-doctors-fumbled-in-communicating-ebola-risk/
p259
VForbes
p260
g4
(g8
S'\x9d\x99\x99\x99\x99\x99\xd9?'
p261
tp262
Rp263
Vnegative
p264
V-0.453106
p265
tp266
a(VResearchers reveal the secret to fending off kidney stones
p267
Vhttp://dailydigestnews.com/2014/11/researchers-reveal-the-secret-to-fending-off-kidney-stones/
p268
VDaily Digest
p269
g4
(g8
S'333333\xc3?'
p270
tp271
Rp272
Vnegative
p273
V-0.518278
p274
tp275
a(VGOP Wins Unlikely To Affect Medicaid, Could Alter ACA's Future
p276
Vhttp://www.californiahealthline.org/articles/2014/11/5/gop-wins-unlikely-to-affect-medicaid-could-alter-acas-future
p277
VCalifornia Healthline
p278
g4
(g8
S'[\x8f\xc2\xf5(\\\xdf?'
p279
tp280
Rp281
Vnegative
p282
V-0.110724
p283
tp284
a.